SF:/home/noahgift/src/decy/crates/decy-codegen/src/codegen_tests.rs
FN:609,_RNvNtNtCsHWvPKTUaMh_12decy_codegen13codegen_tests5testss_23test_end_to_end_if_else
FN:548,_RNvNtNtCsHWvPKTUaMh_12decy_codegen13codegen_tests5testss_23test_generate_nested_if
FN:758,_RNvNtNtCsHWvPKTUaMh_12decy_codegen13codegen_tests5testss_24test_generate_address_of
FN:644,_RNvNtNtCsHWvPKTUaMh_12decy_codegen13codegen_tests5testss_24test_generate_while_loop
FN:745,_RNvNtNtCsHWvPKTUaMh_12decy_codegen13codegen_tests5testss_25test_generate_dereference
FN:222,_RNvNtNtCsHWvPKTUaMh_12decy_codegen13codegen_tests5testss_25test_generate_int_literal
FN:261,_RNvNtNtCsHWvPKTUaMh_12decy_codegen13codegen_tests5testss_25test_generate_return_void
FN:72,_RNvNtNtCsHWvPKTUaMh_12decy_codegen13codegen_tests5testss_25test_type_mapping_pointer
FN:710,_RNvNtNtCsHWvPKTUaMh_12decy_codegen13codegen_tests5testss_26test_end_to_end_while_loop
FN:498,_RNvNtNtCsHWvPKTUaMh_12decy_codegen13codegen_tests5testss_26test_generate_if_statement
FN:80,_RNvNtNtCsHWvPKTUaMh_12decy_codegen13codegen_tests5testss_27test_generate_void_function
FN:169,_RNvNtNtCsHWvPKTUaMh_12decy_codegen13codegen_tests5testss_28test_generated_code_compiles
FN:66,_RNvNtNtCsHWvPKTUaMh_12decy_codegen13codegen_tests5testss_28test_type_mapping_char_to_u8
FN:42,_RNvNtNtCsHWvPKTUaMh_12decy_codegen13codegen_tests5testss_28test_type_mapping_int_to_i32
FN:665,_RNvNtNtCsHWvPKTUaMh_12decy_codegen13codegen_tests5testss_29test_generate_break_statement
FN:301,_RNvNtNtCsHWvPKTUaMh_12decy_codegen13codegen_tests5testss_29test_infer_mutability_default
FN:112,_RNvNtNtCsHWvPKTUaMh_12decy_codegen13codegen_tests5testss_30test_generate_return_statement
FN:687,_RNvNtNtCsHWvPKTUaMh_12decy_codegen13codegen_tests5testss_30test_generate_while_with_break
FN:48,_RNvNtNtCsHWvPKTUaMh_12decy_codegen13codegen_tests5testss_30test_type_mapping_float_to_f32
FN:60,_RNvNtNtCsHWvPKTUaMh_12decy_codegen13codegen_tests5testss_30test_type_mapping_void_to_unit
FN:141,_RNvNtNtCsHWvPKTUaMh_12decy_codegen13codegen_tests5testss_31test_end_to_end_simple_function
FN:91,_RNvNtNtCsHWvPKTUaMh_12decy_codegen13codegen_tests5testss_31test_generate_complete_function
FN:522,_RNvNtNtCsHWvPKTUaMh_12decy_codegen13codegen_tests5testss_31test_generate_if_else_statement
FN:54,_RNvNtNtCsHWvPKTUaMh_12decy_codegen13codegen_tests5testss_31test_type_mapping_double_to_f64
FN:676,_RNvNtNtCsHWvPKTUaMh_12decy_codegen13codegen_tests5testss_32test_generate_continue_statement
FN:13,_RNvNtNtCsHWvPKTUaMh_12decy_codegen13codegen_tests5testss_32test_generate_function_signature
FN:274,_RNvNtNtCsHWvPKTUaMh_12decy_codegen13codegen_tests5testss_32test_generate_function_with_body
FN:771,_RNvNtNtCsHWvPKTUaMh_12decy_codegen13codegen_tests5testss_32test_generate_nested_dereference
FN:431,_RNvNtNtCsHWvPKTUaMh_12decy_codegen13codegen_tests5testss_32test_generate_nested_expressions
FN:235,_RNvNtNtCsHWvPKTUaMh_12decy_codegen13codegen_tests5testss_32test_generate_variable_reference
FN:342,_RNvNtNtCsHWvPKTUaMh_12decy_codegen13codegen_tests5testss_33test_generate_addition_expression
FN:875,_RNvNtNtCsHWvPKTUaMh_12decy_codegen13codegen_tests5testss_34test_generate_nested_function_call
FN:187,_RNvNtNtCsHWvPKTUaMh_12decy_codegen13codegen_tests5testss_34test_generate_variable_declaration
FN:359,_RNvNtNtCsHWvPKTUaMh_12decy_codegen13codegen_tests5testss_35test_generate_comparison_expression
FN:824,_RNvNtNtCsHWvPKTUaMh_12decy_codegen13codegen_tests5testss_35test_generate_function_call_no_args
FN:840,_RNvNtNtCsHWvPKTUaMh_12decy_codegen13codegen_tests5testss_35test_generate_function_call_one_arg
FN:320,_RNvNtNtCsHWvPKTUaMh_12decy_codegen13codegen_tests5testss_36test_end_to_end_variable_declaration
FN:787,_RNvNtNtCsHWvPKTUaMh_12decy_codegen13codegen_tests5testss_36test_generate_address_of_dereference
FN:248,_RNvNtNtCsHWvPKTUaMh_12decy_codegen13codegen_tests5testss_36test_generate_return_with_expression
FN:376,_RNvNtNtCsHWvPKTUaMh_12decy_codegen13codegen_tests5testss_38test_generate_all_arithmetic_operators
FN:403,_RNvNtNtCsHWvPKTUaMh_12decy_codegen13codegen_tests5testss_38test_generate_all_comparison_operators
FN:24,_RNvNtNtCsHWvPKTUaMh_12decy_codegen13codegen_tests5testss_38test_generate_function_with_parameters
FN:856,_RNvNtNtCsHWvPKTUaMh_12decy_codegen13codegen_tests5testss_41test_generate_function_call_multiple_args
FN:579,_RNvNtNtCsHWvPKTUaMh_12decy_codegen13codegen_tests5testss_41test_generate_if_with_multiple_statements
FN:474,_RNvNtNtCsHWvPKTUaMh_12decy_codegen13codegen_tests5testss_41test_operator_precedence_with_parentheses
FN:204,_RNvNtNtCsHWvPKTUaMh_12decy_codegen13codegen_tests5testss_42test_generate_variable_without_initializer
FN:123,_RNvNtNtCsHWvPKTUaMh_12decy_codegen13codegen_tests5testss_45test_generate_function_with_pointer_parameter
FN:803,_RNvNtNtCsHWvPKTUaMh_12decy_codegen13codegen_tests5testss_45test_generate_pointer_in_variable_declaration
FN:453,_RNvNtNtCsHWvPKTUaMh_12decy_codegen13codegen_tests5testss_48test_generate_expression_in_variable_declaration
FN:895,_RNvNtNtCsHWvPKTUaMh_12decy_codegen13codegen_tests5testss_51test_generate_function_call_in_variable_declaration
FNDA:1,_RNvNtNtCsHWvPKTUaMh_12decy_codegen13codegen_tests5testss_23test_end_to_end_if_else
FNDA:1,_RNvNtNtCsHWvPKTUaMh_12decy_codegen13codegen_tests5testss_23test_generate_nested_if
FNDA:1,_RNvNtNtCsHWvPKTUaMh_12decy_codegen13codegen_tests5testss_24test_generate_address_of
FNDA:1,_RNvNtNtCsHWvPKTUaMh_12decy_codegen13codegen_tests5testss_24test_generate_while_loop
FNDA:1,_RNvNtNtCsHWvPKTUaMh_12decy_codegen13codegen_tests5testss_25test_generate_dereference
FNDA:1,_RNvNtNtCsHWvPKTUaMh_12decy_codegen13codegen_tests5testss_25test_generate_int_literal
FNDA:1,_RNvNtNtCsHWvPKTUaMh_12decy_codegen13codegen_tests5testss_25test_generate_return_void
FNDA:1,_RNvNtNtCsHWvPKTUaMh_12decy_codegen13codegen_tests5testss_25test_type_mapping_pointer
FNDA:1,_RNvNtNtCsHWvPKTUaMh_12decy_codegen13codegen_tests5testss_26test_end_to_end_while_loop
FNDA:1,_RNvNtNtCsHWvPKTUaMh_12decy_codegen13codegen_tests5testss_26test_generate_if_statement
FNDA:1,_RNvNtNtCsHWvPKTUaMh_12decy_codegen13codegen_tests5testss_27test_generate_void_function
FNDA:1,_RNvNtNtCsHWvPKTUaMh_12decy_codegen13codegen_tests5testss_28test_generated_code_compiles
FNDA:1,_RNvNtNtCsHWvPKTUaMh_12decy_codegen13codegen_tests5testss_28test_type_mapping_char_to_u8
FNDA:1,_RNvNtNtCsHWvPKTUaMh_12decy_codegen13codegen_tests5testss_28test_type_mapping_int_to_i32
FNDA:1,_RNvNtNtCsHWvPKTUaMh_12decy_codegen13codegen_tests5testss_29test_generate_break_statement
FNDA:1,_RNvNtNtCsHWvPKTUaMh_12decy_codegen13codegen_tests5testss_29test_infer_mutability_default
FNDA:1,_RNvNtNtCsHWvPKTUaMh_12decy_codegen13codegen_tests5testss_30test_generate_return_statement
FNDA:1,_RNvNtNtCsHWvPKTUaMh_12decy_codegen13codegen_tests5testss_30test_generate_while_with_break
FNDA:1,_RNvNtNtCsHWvPKTUaMh_12decy_codegen13codegen_tests5testss_30test_type_mapping_float_to_f32
FNDA:1,_RNvNtNtCsHWvPKTUaMh_12decy_codegen13codegen_tests5testss_30test_type_mapping_void_to_unit
FNDA:1,_RNvNtNtCsHWvPKTUaMh_12decy_codegen13codegen_tests5testss_31test_end_to_end_simple_function
FNDA:1,_RNvNtNtCsHWvPKTUaMh_12decy_codegen13codegen_tests5testss_31test_generate_complete_function
FNDA:1,_RNvNtNtCsHWvPKTUaMh_12decy_codegen13codegen_tests5testss_31test_generate_if_else_statement
FNDA:1,_RNvNtNtCsHWvPKTUaMh_12decy_codegen13codegen_tests5testss_31test_type_mapping_double_to_f64
FNDA:1,_RNvNtNtCsHWvPKTUaMh_12decy_codegen13codegen_tests5testss_32test_generate_continue_statement
FNDA:1,_RNvNtNtCsHWvPKTUaMh_12decy_codegen13codegen_tests5testss_32test_generate_function_signature
FNDA:1,_RNvNtNtCsHWvPKTUaMh_12decy_codegen13codegen_tests5testss_32test_generate_function_with_body
FNDA:1,_RNvNtNtCsHWvPKTUaMh_12decy_codegen13codegen_tests5testss_32test_generate_nested_dereference
FNDA:1,_RNvNtNtCsHWvPKTUaMh_12decy_codegen13codegen_tests5testss_32test_generate_nested_expressions
FNDA:1,_RNvNtNtCsHWvPKTUaMh_12decy_codegen13codegen_tests5testss_32test_generate_variable_reference
FNDA:1,_RNvNtNtCsHWvPKTUaMh_12decy_codegen13codegen_tests5testss_33test_generate_addition_expression
FNDA:1,_RNvNtNtCsHWvPKTUaMh_12decy_codegen13codegen_tests5testss_34test_generate_nested_function_call
FNDA:1,_RNvNtNtCsHWvPKTUaMh_12decy_codegen13codegen_tests5testss_34test_generate_variable_declaration
FNDA:1,_RNvNtNtCsHWvPKTUaMh_12decy_codegen13codegen_tests5testss_35test_generate_comparison_expression
FNDA:1,_RNvNtNtCsHWvPKTUaMh_12decy_codegen13codegen_tests5testss_35test_generate_function_call_no_args
FNDA:1,_RNvNtNtCsHWvPKTUaMh_12decy_codegen13codegen_tests5testss_35test_generate_function_call_one_arg
FNDA:1,_RNvNtNtCsHWvPKTUaMh_12decy_codegen13codegen_tests5testss_36test_end_to_end_variable_declaration
FNDA:1,_RNvNtNtCsHWvPKTUaMh_12decy_codegen13codegen_tests5testss_36test_generate_address_of_dereference
FNDA:1,_RNvNtNtCsHWvPKTUaMh_12decy_codegen13codegen_tests5testss_36test_generate_return_with_expression
FNDA:1,_RNvNtNtCsHWvPKTUaMh_12decy_codegen13codegen_tests5testss_38test_generate_all_arithmetic_operators
FNDA:1,_RNvNtNtCsHWvPKTUaMh_12decy_codegen13codegen_tests5testss_38test_generate_all_comparison_operators
FNDA:1,_RNvNtNtCsHWvPKTUaMh_12decy_codegen13codegen_tests5testss_38test_generate_function_with_parameters
FNDA:1,_RNvNtNtCsHWvPKTUaMh_12decy_codegen13codegen_tests5testss_41test_generate_function_call_multiple_args
FNDA:1,_RNvNtNtCsHWvPKTUaMh_12decy_codegen13codegen_tests5testss_41test_generate_if_with_multiple_statements
FNDA:1,_RNvNtNtCsHWvPKTUaMh_12decy_codegen13codegen_tests5testss_41test_operator_precedence_with_parentheses
FNDA:1,_RNvNtNtCsHWvPKTUaMh_12decy_codegen13codegen_tests5testss_42test_generate_variable_without_initializer
FNDA:1,_RNvNtNtCsHWvPKTUaMh_12decy_codegen13codegen_tests5testss_45test_generate_function_with_pointer_parameter
FNDA:1,_RNvNtNtCsHWvPKTUaMh_12decy_codegen13codegen_tests5testss_45test_generate_pointer_in_variable_declaration
FNDA:1,_RNvNtNtCsHWvPKTUaMh_12decy_codegen13codegen_tests5testss_48test_generate_expression_in_variable_declaration
FNDA:1,_RNvNtNtCsHWvPKTUaMh_12decy_codegen13codegen_tests5testss_51test_generate_function_call_in_variable_declaration
FNF:50
FNH:50
DA:13,1
DA:15,1
DA:17,1
DA:18,1
DA:20,1
DA:21,1
DA:24,1
DA:26,1
DA:27,1
DA:28,1
DA:29,1
DA:30,1
DA:31,1
DA:35,1
DA:36,1
DA:38,1
DA:39,1
DA:42,1
DA:44,1
DA:45,1
DA:48,1
DA:50,1
DA:51,1
DA:54,1
DA:56,1
DA:57,1
DA:60,1
DA:62,1
DA:63,1
DA:66,1
DA:68,1
DA:69,1
DA:72,1
DA:74,1
DA:76,1
DA:77,1
DA:80,1
DA:82,1
DA:84,1
DA:85,1
DA:87,1
DA:88,1
DA:91,1
DA:93,1
DA:94,1
DA:95,1
DA:96,1
DA:97,1
DA:98,1
DA:102,1
DA:103,1
DA:106,1
DA:107,1
DA:108,1
DA:109,1
DA:112,1
DA:114,1
DA:115,1
DA:118,1
DA:119,1
DA:120,1
DA:123,1
DA:125,1
DA:126,1
DA:127,1
DA:128,1
DA:129,1
DA:130,1
DA:134,1
DA:135,1
DA:137,1
DA:138,1
DA:141,1
DA:143,1
DA:144,1
DA:145,1
DA:146,1
DA:147,1
DA:148,1
DA:152,1
DA:153,1
DA:156,1
DA:157,1
DA:158,1
DA:159,1
DA:162,1
DA:163,1
DA:164,1
DA:165,1
DA:166,1
DA:169,1
DA:172,1
DA:174,1
DA:175,1
DA:179,1
DA:180,1
DA:181,1
DA:182,1
DA:183,1
DA:187,1
DA:191,1
DA:192,1
DA:193,1
DA:194,1
DA:195,1
DA:197,1
DA:198,1
DA:200,1
DA:201,1
DA:204,1
DA:208,1
DA:209,1
DA:210,1
DA:211,1
DA:212,1
DA:214,1
DA:215,1
DA:218,1
DA:219,1
DA:222,1
DA:226,1
DA:228,1
DA:229,1
DA:231,1
DA:232,1
DA:235,1
DA:239,1
DA:241,1
DA:242,1
DA:244,1
DA:245,1
DA:248,1
DA:252,1
DA:254,1
DA:255,1
DA:257,1
DA:258,1
DA:261,1
DA:265,1
DA:267,1
DA:268,1
DA:270,1
DA:271,1
DA:274,1
DA:278,1
DA:279,1
DA:280,1
DA:281,1
DA:282,1
DA:283,1
DA:284,1
DA:285,1
DA:286,1
DA:287,1
DA:288,1
DA:292,1
DA:293,1
DA:295,1
DA:296,1
DA:297,1
DA:298,1
DA:301,1
DA:306,1
DA:307,1
DA:308,1
DA:309,1
DA:310,1
DA:312,1
DA:313,1
DA:316,1
DA:317,1
DA:320,1
DA:326,1
DA:327,1
DA:328,1
DA:329,1
DA:330,1
DA:332,1
DA:333,1
DA:336,1
DA:337,1
DA:342,1
DA:346,1
DA:347,1
DA:348,1
DA:349,1
DA:350,1
DA:352,1
DA:353,1
DA:355,1
DA:356,1
DA:359,1
DA:363,1
DA:364,1
DA:365,1
DA:366,1
DA:367,1
DA:369,1
DA:370,1
DA:372,1
DA:373,1
DA:376,1
DA:380,1
DA:382,1
DA:383,1
DA:384,1
DA:385,1
DA:386,1
DA:387,1
DA:390,6
DA:391,5
DA:392,5
DA:393,5
DA:394,5
DA:395,5
DA:397,5
DA:398,5
DA:400,1
DA:403,1
DA:407,1
DA:409,1
DA:410,1
DA:411,1
DA:412,1
DA:413,1
DA:414,1
DA:415,1
DA:418,7
DA:419,6
DA:420,6
DA:421,6
DA:422,6
DA:423,6
DA:425,6
DA:426,6
DA:428,1
DA:431,1
DA:436,1
DA:437,1
DA:438,1
DA:439,1
DA:440,1
DA:441,1
DA:442,1
DA:443,1
DA:444,1
DA:446,1
DA:447,1
DA:449,1
DA:450,1
DA:453,1
DA:457,1
DA:458,1
DA:459,1
DA:460,1
DA:461,1
DA:462,1
DA:463,1
DA:464,1
DA:465,1
DA:467,1
DA:468,1
DA:470,1
DA:471,1
DA:474,1
DA:479,1
DA:480,1
DA:481,1
DA:482,1
DA:483,1
DA:484,1
DA:485,1
DA:486,1
DA:487,1
DA:489,1
DA:490,1
DA:492,1
DA:493,1
DA:498,1
DA:502,1
DA:503,1
DA:504,1
DA:505,1
DA:506,1
DA:507,1
DA:508,1
DA:509,1
DA:510,1
DA:512,1
DA:513,1
DA:515,1
DA:516,1
DA:517,1
DA:518,1
DA:519,1
DA:522,1
DA:526,1
DA:527,1
DA:528,1
DA:529,1
DA:530,1
DA:531,1
DA:532,1
DA:533,1
DA:534,1
DA:535,1
DA:536,1
DA:538,1
DA:539,1
DA:541,1
DA:542,1
DA:543,1
DA:544,1
DA:545,1
DA:548,1
DA:552,1
DA:553,1
DA:554,1
DA:555,1
DA:556,1
DA:557,1
DA:558,1
DA:559,1
DA:560,1
DA:561,1
DA:562,1
DA:563,1
DA:564,1
DA:565,1
DA:566,1
DA:567,1
DA:568,1
DA:570,1
DA:571,1
DA:574,1
DA:575,1
DA:576,1
DA:579,1
DA:583,1
DA:584,1
DA:585,1
DA:586,1
DA:587,1
DA:588,1
DA:589,1
DA:590,1
DA:591,1
DA:592,1
DA:593,1
DA:594,1
DA:595,1
DA:596,1
DA:597,1
DA:598,1
DA:600,1
DA:601,1
DA:603,1
DA:604,1
DA:605,1
DA:606,1
DA:609,1
DA:614,1
DA:615,1
DA:616,1
DA:617,1
DA:618,1
DA:619,1
DA:620,1
DA:621,1
DA:622,1
DA:623,1
DA:624,1
DA:625,1
DA:626,1
DA:627,1
DA:628,1
DA:631,1
DA:632,1
DA:634,1
DA:635,1
DA:636,1
DA:637,1
DA:638,1
DA:639,1
DA:644,1
DA:646,1
DA:647,1
DA:648,1
DA:649,1
DA:650,1
DA:651,1
DA:652,1
DA:653,1
DA:655,1
DA:656,1
DA:658,1
DA:659,1
DA:660,1
DA:661,1
DA:662,1
DA:665,1
DA:667,1
DA:669,1
DA:670,1
DA:672,1
DA:673,1
DA:676,1
DA:678,1
DA:680,1
DA:681,1
DA:683,1
DA:684,1
DA:687,1
DA:689,1
DA:690,1
DA:691,1
DA:692,1
DA:693,1
DA:694,1
DA:695,1
DA:696,1
DA:697,1
DA:698,1
DA:699,1
DA:701,1
DA:702,1
DA:704,1
DA:705,1
DA:706,1
DA:707,1
DA:710,1
DA:712,1
DA:713,1
DA:714,1
DA:715,1
DA:716,1
DA:717,1
DA:718,1
DA:719,1
DA:720,1
DA:721,1
DA:722,1
DA:723,1
DA:724,1
DA:725,1
DA:726,1
DA:727,1
DA:728,1
DA:729,1
DA:733,1
DA:734,1
DA:736,1
DA:737,1
DA:738,1
DA:739,1
DA:740,1
DA:745,1
DA:749,1
DA:751,1
DA:752,1
DA:754,1
DA:755,1
DA:758,1
DA:762,1
DA:764,1
DA:765,1
DA:767,1
DA:768,1
DA:771,1
DA:776,1
DA:777,1
DA:778,1
DA:780,1
DA:781,1
DA:783,1
DA:784,1
DA:787,1
DA:792,1
DA:793,1
DA:794,1
DA:796,1
DA:797,1
DA:799,1
DA:800,1
DA:803,1
DA:807,1
DA:808,1
DA:809,1
DA:810,1
DA:811,1
DA:812,1
DA:813,1
DA:815,1
DA:816,1
DA:818,1
DA:819,1
DA:824,1
DA:828,1
DA:829,1
DA:830,1
DA:831,1
DA:833,1
DA:834,1
DA:836,1
DA:837,1
DA:840,1
DA:844,1
DA:845,1
DA:846,1
DA:847,1
DA:849,1
DA:850,1
DA:852,1
DA:853,1
DA:856,1
DA:860,1
DA:861,1
DA:862,1
DA:863,1
DA:864,1
DA:865,1
DA:866,1
DA:868,1
DA:869,1
DA:871,1
DA:872,1
DA:875,1
DA:880,1
DA:881,1
DA:882,1
DA:883,1
DA:884,1
DA:885,1
DA:886,1
DA:888,1
DA:889,1
DA:891,1
DA:892,1
DA:895,1
DA:899,1
DA:900,1
DA:901,1
DA:902,1
DA:903,1
DA:904,1
DA:905,1
DA:906,1
DA:908,1
DA:909,1
DA:911,1
DA:912,1
BRF:0
BRH:0
LF:551
LH:551
end_of_record
SF:/home/noahgift/src/decy/crates/decy-codegen/src/lib.rs
FN:259,_RNCNvMCsHWvPKTUaMh_12decy_codegenNtB4_13CodeGenerator18generate_signature0B4_
FN:123,_RNCNvMCsHWvPKTUaMh_12decy_codegenNtB4_13CodeGenerator19generate_expression0B4_
FN:348,_RNvXs_CsHWvPKTUaMh_12decy_codegenNtB4_13CodeGeneratorNtNtCs5GmCzIpY9Qj_4core7default7Default7default
FN:283,_RNvMCsHWvPKTUaMh_12decy_codegenNtB2_13CodeGenerator15generate_return
FN:318,_RNvMCsHWvPKTUaMh_12decy_codegenNtB2_13CodeGenerator17generate_function
FN:251,_RNvMCsHWvPKTUaMh_12decy_codegenNtB2_13CodeGenerator18generate_signature
FN:160,_RNvMCsHWvPKTUaMh_12decy_codegenNtB2_13CodeGenerator18generate_statement
FN:80,_RNvMCsHWvPKTUaMh_12decy_codegenNtB2_13CodeGenerator19generate_expression
FN:148,_RNvMCsHWvPKTUaMh_12decy_codegenNtB2_13CodeGenerator22default_value_for_type
FN:131,_RNvMCsHWvPKTUaMh_12decy_codegenNtB2_13CodeGenerator25binary_operator_to_string
FN:50,_RNvMCsHWvPKTUaMh_12decy_codegenNtB2_13CodeGenerator3new
FN:65,_RNvMCsHWvPKTUaMh_12decy_codegenNtB2_13CodeGenerator8map_type
FNDA:8,_RNCNvMCsHWvPKTUaMh_12decy_codegenNtB4_13CodeGenerator18generate_signature0B4_
FNDA:5,_RNCNvMCsHWvPKTUaMh_12decy_codegenNtB4_13CodeGenerator19generate_expression0B4_
FNDA:0,_RNvXs_CsHWvPKTUaMh_12decy_codegenNtB4_13CodeGeneratorNtNtCs5GmCzIpY9Qj_4core7default7Default7default
FNDA:518,_RNvMCsHWvPKTUaMh_12decy_codegenNtB2_13CodeGenerator15generate_return
FNDA:520,_RNvMCsHWvPKTUaMh_12decy_codegenNtB2_13CodeGenerator17generate_function
FNDA:1295,_RNvMCsHWvPKTUaMh_12decy_codegenNtB2_13CodeGenerator18generate_signature
FNDA:3633,_RNvMCsHWvPKTUaMh_12decy_codegenNtB2_13CodeGenerator18generate_statement
FNDA:10054,_RNvMCsHWvPKTUaMh_12decy_codegenNtB2_13CodeGenerator19generate_expression
FNDA:258,_RNvMCsHWvPKTUaMh_12decy_codegenNtB2_13CodeGenerator22default_value_for_type
FNDA:1838,_RNvMCsHWvPKTUaMh_12decy_codegenNtB2_13CodeGenerator25binary_operator_to_string
FNDA:5196,_RNvMCsHWvPKTUaMh_12decy_codegenNtB2_13CodeGenerator3new
FNDA:1992,_RNvMCsHWvPKTUaMh_12decy_codegenNtB2_13CodeGenerator8map_type
FNF:12
FNH:11
DA:50,5196
DA:51,5196
DA:52,5196
DA:65,1992
DA:66,1992
DA:67,116
DA:68,632
DA:69,360
DA:70,377
DA:71,226
DA:72,281
DA:73,281
DA:76,1992
DA:80,10054
DA:81,10054
DA:82,3626
DA:83,2903
DA:84,1838
DA:85,1838
DA:86,1838
DA:87,1838
DA:90,1838
DA:91,2
DA:93,1836
DA:96,1838
DA:97,1
DA:99,1837
DA:102,1838
DA:104,1422
DA:105,1422
DA:106,1422
DA:108,259
DA:109,259
DA:111,259
DA:112,1
DA:114,258
DA:118,6
DA:119,6
DA:121,6
DA:122,6
DA:123,6
DA:124,6
DA:125,6
DA:128,10054
DA:131,1838
DA:132,1838
DA:133,521
DA:134,2
DA:135,5
DA:136,2
DA:137,2
DA:138,260
DA:139,2
DA:140,519
DA:141,521
DA:142,2
DA:143,2
DA:145,1838
DA:148,258
DA:149,258
DA:150,35
DA:151,39
DA:152,42
DA:153,51
DA:154,37
DA:155,54
DA:157,258
DA:160,3633
DA:161,3633
DA:163,268
DA:164,268
DA:165,268
DA:167,268
DA:168,268
DA:169,10
DA:170,258
DA:171,258
DA:172,258
DA:173,258
DA:174,268
DA:176,1039
DA:177,1039
DA:178,1038
DA:180,1
DA:184,777
DA:185,777
DA:186,777
DA:188,777
DA:191,777
DA:194,1555
DA:195,778
DA:196,778
DA:197,778
DA:198,778
DA:201,777
DA:202,259
DA:203,518
DA:204,259
DA:205,259
DA:206,259
DA:207,259
DA:208,518
DA:210,777
DA:211,777
DA:213,517
DA:214,517
DA:217,517
DA:218,517
DA:219,517
DA:220,517
DA:223,1035
DA:224,518
DA:225,518
DA:226,518
DA:227,518
DA:229,517
DA:230,517
DA:232,516
DA:233,516
DA:235,3633
DA:251,1295
DA:252,1295
DA:255,1295
DA:256,1295
DA:257,1295
DA:258,1295
DA:259,1295
DA:260,1295
DA:261,1295
DA:262,1295
DA:265,1295
DA:266,915
DA:267,915
DA:269,1295
DA:270,1295
DA:283,518
DA:284,518
DA:285,88
DA:286,82
DA:287,84
DA:288,92
DA:289,85
DA:290,87
DA:292,518
DA:318,520
DA:319,520
DA:322,520
DA:323,520
DA:326,520
DA:328,517
DA:329,517
DA:330,429
DA:331,429
DA:332,429
DA:335,5
DA:336,5
DA:337,5
DA:338,5
DA:339,5
DA:342,520
DA:343,520
DA:344,520
DA:348,0
DA:349,0
DA:350,0
BRF:0
BRH:0
LF:167
LH:164
end_of_record
SF:/home/noahgift/src/decy/crates/decy-codegen/src/property_tests.rs
FN:358,_RNCNCNvNtCsHWvPKTUaMh_12decy_codegen14property_testss_38property_nested_dereference_star_counts_00B7_
FN:8,_RNvNtCsHWvPKTUaMh_12decy_codegen14property_tests17hir_type_strategy
FN:414,_RNvNtNtCsHWvPKTUaMh_12decy_codegen14property_tests17binary_expr_testss_27test_nested_expr_has_parens
FN:384,_RNvNtNtCsHWvPKTUaMh_12decy_codegen14property_tests17binary_expr_testss_34test_binary_expr_contains_operator
FNDA:1417,_RNCNCNvNtCsHWvPKTUaMh_12decy_codegen14property_testss_38property_nested_dereference_star_counts_00B7_
FNDA:5,_RNvNtCsHWvPKTUaMh_12decy_codegen14property_tests17hir_type_strategy
FNDA:1,_RNvNtNtCsHWvPKTUaMh_12decy_codegen14property_tests17binary_expr_testss_27test_nested_expr_has_parens
FNDA:1,_RNvNtNtCsHWvPKTUaMh_12decy_codegen14property_tests17binary_expr_testss_34test_binary_expr_contains_operator
FNF:4
FNH:4
DA:8,5
DA:9,5
DA:10,5
DA:11,5
DA:12,5
DA:13,5
DA:14,5
DA:15,5
DA:17,5
DA:358,1417
DA:384,1
DA:385,1
DA:386,1
DA:387,1
DA:388,1
DA:389,1
DA:390,1
DA:391,1
DA:392,1
DA:393,1
DA:394,1
DA:395,1
DA:396,1
DA:397,1
DA:399,12
DA:400,11
DA:401,11
DA:402,11
DA:403,11
DA:404,11
DA:406,11
DA:407,11
DA:409,11
DA:411,1
DA:414,1
DA:416,1
DA:417,1
DA:418,1
DA:419,1
DA:420,1
DA:421,1
DA:422,1
DA:423,1
DA:424,1
DA:426,1
DA:427,1
DA:429,1
DA:430,1
DA:431,1
BRF:0
BRH:0
LF:49
LH:49
end_of_record
SF:/home/noahgift/src/decy/crates/decy-core/src/lib.rs
FN:38,_RNvNtCsjLjiTuUMN6G_9decy_core5testss_26test_transpile_placeholder
FN:28,_RNvCsjLjiTuUMN6G_9decy_core9transpile
FNDA:1,_RNvNtCsjLjiTuUMN6G_9decy_core5testss_26test_transpile_placeholder
FNDA:1,_RNvCsjLjiTuUMN6G_9decy_core9transpile
FNF:2
FNH:2
DA:28,1
DA:30,1
DA:31,1
DA:38,1
DA:40,1
DA:41,1
BRF:0
BRH:0
LF:6
LH:6
end_of_record
SF:/home/noahgift/src/decy/crates/decy-hir/src/hir_tests.rs
FN:69,_RNvNtNtCshPtIA4XsLoQ_8decy_hir9hir_tests5testss_22test_hir_serialization
FN:128,_RNvNtNtCshPtIA4XsLoQ_8decy_hir9hir_tests5testss_22test_hir_type_equality
FN:38,_RNvNtNtCshPtIA4XsLoQ_8decy_hir9hir_tests5testss_22test_hir_type_variants
FN:83,_RNvNtNtCshPtIA4XsLoQ_8decy_hir9hir_tests5testss_26test_ast_to_hir_conversion
FN:12,_RNvNtNtCshPtIA4XsLoQ_8decy_hir9hir_tests5testss_26test_hir_function_creation
FN:60,_RNvNtNtCshPtIA4XsLoQ_8decy_hir9hir_tests5testss_27test_hir_parameter_creation
FN:141,_RNvNtNtCshPtIA4XsLoQ_8decy_hir9hir_tests5testss_27test_hir_parameter_from_ast
FN:106,_RNvNtNtCshPtIA4XsLoQ_8decy_hir9hir_tests5testss_27test_hir_type_from_ast_type
FN:175,_RNvNtNtCshPtIA4XsLoQ_8decy_hir9hir_tests5testss_30test_nested_pointer_conversion
FN:22,_RNvNtNtCshPtIA4XsLoQ_8decy_hir9hir_tests5testss_33test_hir_function_with_parameters
FN:152,_RNvNtNtCshPtIA4XsLoQ_8decy_hir9hir_tests5testss_37test_hir_function_with_complex_params
FN:194,_RNvNtNtCshPtIA4XsLoQ_8decy_hir9hir_tests5testss_41test_ast_to_hir_with_multiple_param_types
FNDA:1,_RNvNtNtCshPtIA4XsLoQ_8decy_hir9hir_tests5testss_22test_hir_serialization
FNDA:1,_RNvNtNtCshPtIA4XsLoQ_8decy_hir9hir_tests5testss_22test_hir_type_equality
FNDA:1,_RNvNtNtCshPtIA4XsLoQ_8decy_hir9hir_tests5testss_22test_hir_type_variants
FNDA:1,_RNvNtNtCshPtIA4XsLoQ_8decy_hir9hir_tests5testss_26test_ast_to_hir_conversion
FNDA:1,_RNvNtNtCshPtIA4XsLoQ_8decy_hir9hir_tests5testss_26test_hir_function_creation
FNDA:1,_RNvNtNtCshPtIA4XsLoQ_8decy_hir9hir_tests5testss_27test_hir_parameter_creation
FNDA:1,_RNvNtNtCshPtIA4XsLoQ_8decy_hir9hir_tests5testss_27test_hir_parameter_from_ast
FNDA:1,_RNvNtNtCshPtIA4XsLoQ_8decy_hir9hir_tests5testss_27test_hir_type_from_ast_type
FNDA:1,_RNvNtNtCshPtIA4XsLoQ_8decy_hir9hir_tests5testss_30test_nested_pointer_conversion
FNDA:1,_RNvNtNtCshPtIA4XsLoQ_8decy_hir9hir_tests5testss_33test_hir_function_with_parameters
FNDA:1,_RNvNtNtCshPtIA4XsLoQ_8decy_hir9hir_tests5testss_37test_hir_function_with_complex_params
FNDA:1,_RNvNtNtCshPtIA4XsLoQ_8decy_hir9hir_tests5testss_41test_ast_to_hir_with_multiple_param_types
FNF:12
FNH:12
DA:12,1
DA:14,1
DA:16,1
DA:17,1
DA:18,1
DA:19,1
DA:22,1
DA:24,1
DA:25,1
DA:26,1
DA:29,1
DA:31,1
DA:32,1
DA:33,1
DA:34,1
DA:35,1
DA:38,1
DA:40,1
DA:41,1
DA:42,1
DA:43,1
DA:44,1
DA:45,1
DA:46,1
DA:47,1
DA:49,1
DA:52,1
DA:53,1
DA:55,0
DA:57,1
DA:60,1
DA:62,1
DA:64,1
DA:65,1
DA:66,1
DA:69,1
DA:71,1
DA:74,1
DA:75,1
DA:78,1
DA:79,1
DA:80,1
DA:83,1
DA:88,1
DA:89,1
DA:90,1
DA:91,1
DA:92,1
DA:93,1
DA:98,1
DA:100,1
DA:101,1
DA:102,1
DA:103,1
DA:106,1
DA:110,1
DA:111,1
DA:112,1
DA:113,1
DA:114,1
DA:117,1
DA:118,1
DA:120,1
DA:121,1
DA:123,0
DA:125,1
DA:128,1
DA:130,1
DA:131,1
DA:132,1
DA:135,1
DA:136,1
DA:137,1
DA:138,1
DA:141,1
DA:144,1
DA:145,1
DA:147,1
DA:148,1
DA:149,1
DA:152,1
DA:153,1
DA:154,1
DA:155,1
DA:156,1
DA:159,1
DA:161,1
DA:162,1
DA:163,1
DA:164,1
DA:165,1
DA:167,1
DA:168,1
DA:170,0
DA:172,1
DA:175,1
DA:179,1
DA:180,1
DA:182,1
DA:183,1
DA:184,1
DA:186,0
DA:189,0
DA:191,1
DA:194,1
DA:197,1
DA:198,1
DA:199,1
DA:200,1
DA:201,1
DA:202,1
DA:203,1
DA:204,1
DA:208,1
DA:210,1
DA:211,1
DA:212,1
DA:213,1
DA:214,1
DA:215,1
DA:216,1
DA:217,1
BRF:0
BRH:0
LF:122
LH:117
end_of_record
SF:/home/noahgift/src/decy/crates/decy-hir/src/lib.rs
FN:54,_RNvMCslVQWfXFc6DY_8decy_hirNtB2_7HirType13from_ast_type
FN:157,_RNvMs0_CslVQWfXFc6DY_8decy_hirNtB5_11HirFunction10parameters
FN:152,_RNvMs0_CslVQWfXFc6DY_8decy_hirNtB5_11HirFunction11return_type
FN:215,_RNvMs0_CslVQWfXFc6DY_8decy_hirNtB5_11HirFunction13new_with_body
FN:178,_RNvMs0_CslVQWfXFc6DY_8decy_hirNtB5_11HirFunction17from_ast_function
FN:137,_RNvMs0_CslVQWfXFc6DY_8decy_hirNtB5_11HirFunction3new
FN:230,_RNvMs0_CslVQWfXFc6DY_8decy_hirNtB5_11HirFunction4body
FN:147,_RNvMs0_CslVQWfXFc6DY_8decy_hirNtB5_11HirFunction4name
FN:95,_RNvMs_CslVQWfXFc6DY_8decy_hirNtB4_12HirParameter10param_type
FN:100,_RNvMs_CslVQWfXFc6DY_8decy_hirNtB4_12HirParameter18from_ast_parameter
FN:85,_RNvMs_CslVQWfXFc6DY_8decy_hirNtB4_12HirParameter3new
FN:90,_RNvMs_CslVQWfXFc6DY_8decy_hirNtB4_12HirParameter4name
FN:54,_RNvMCshPtIA4XsLoQ_8decy_hirNtB2_7HirType13from_ast_type
FN:157,_RNvMs0_CshPtIA4XsLoQ_8decy_hirNtB5_11HirFunction10parameters
FN:152,_RNvMs0_CshPtIA4XsLoQ_8decy_hirNtB5_11HirFunction11return_type
FN:215,_RNvMs0_CshPtIA4XsLoQ_8decy_hirNtB5_11HirFunction13new_with_body
FN:178,_RNvMs0_CshPtIA4XsLoQ_8decy_hirNtB5_11HirFunction17from_ast_function
FN:137,_RNvMs0_CshPtIA4XsLoQ_8decy_hirNtB5_11HirFunction3new
FN:230,_RNvMs0_CshPtIA4XsLoQ_8decy_hirNtB5_11HirFunction4body
FN:147,_RNvMs0_CshPtIA4XsLoQ_8decy_hirNtB5_11HirFunction4name
FN:95,_RNvMs_CshPtIA4XsLoQ_8decy_hirNtB4_12HirParameter10param_type
FN:100,_RNvMs_CshPtIA4XsLoQ_8decy_hirNtB4_12HirParameter18from_ast_parameter
FN:85,_RNvMs_CshPtIA4XsLoQ_8decy_hirNtB4_12HirParameter3new
FN:90,_RNvMs_CshPtIA4XsLoQ_8decy_hirNtB4_12HirParameter4name
FNDA:0,_RNvMCslVQWfXFc6DY_8decy_hirNtB2_7HirType13from_ast_type
FNDA:1295,_RNvMs0_CslVQWfXFc6DY_8decy_hirNtB5_11HirFunction10parameters
FNDA:2727,_RNvMs0_CslVQWfXFc6DY_8decy_hirNtB5_11HirFunction11return_type
FNDA:3,_RNvMs0_CslVQWfXFc6DY_8decy_hirNtB5_11HirFunction13new_with_body
FNDA:0,_RNvMs0_CslVQWfXFc6DY_8decy_hirNtB5_11HirFunction17from_ast_function
FNDA:1292,_RNvMs0_CslVQWfXFc6DY_8decy_hirNtB5_11HirFunction3new
FNDA:523,_RNvMs0_CslVQWfXFc6DY_8decy_hirNtB5_11HirFunction4body
FNDA:1295,_RNvMs0_CslVQWfXFc6DY_8decy_hirNtB5_11HirFunction4name
FNDA:8,_RNvMs_CslVQWfXFc6DY_8decy_hirNtB4_12HirParameter10param_type
FNDA:0,_RNvMs_CslVQWfXFc6DY_8decy_hirNtB4_12HirParameter18from_ast_parameter
FNDA:8,_RNvMs_CslVQWfXFc6DY_8decy_hirNtB4_12HirParameter3new
FNDA:8,_RNvMs_CslVQWfXFc6DY_8decy_hirNtB4_12HirParameter4name
FNDA:1673,_RNvMCshPtIA4XsLoQ_8decy_hirNtB2_7HirType13from_ast_type
FNDA:526,_RNvMs0_CshPtIA4XsLoQ_8decy_hirNtB5_11HirFunction10parameters
FNDA:260,_RNvMs0_CshPtIA4XsLoQ_8decy_hirNtB5_11HirFunction11return_type
FNDA:1,_RNvMs0_CshPtIA4XsLoQ_8decy_hirNtB5_11HirFunction13new_with_body
FNDA:514,_RNvMs0_CshPtIA4XsLoQ_8decy_hirNtB5_11HirFunction17from_ast_function
FNDA:1028,_RNvMs0_CshPtIA4XsLoQ_8decy_hirNtB5_11HirFunction3new
FNDA:1,_RNvMs0_CshPtIA4XsLoQ_8decy_hirNtB5_11HirFunction4body
FNDA:518,_RNvMs0_CshPtIA4XsLoQ_8decy_hirNtB5_11HirFunction4name
FNDA:265,_RNvMs_CshPtIA4XsLoQ_8decy_hirNtB4_12HirParameter10param_type
FNDA:1149,_RNvMs_CshPtIA4XsLoQ_8decy_hirNtB4_12HirParameter18from_ast_parameter
FNDA:3484,_RNvMs_CshPtIA4XsLoQ_8decy_hirNtB4_12HirParameter3new
FNDA:260,_RNvMs_CshPtIA4XsLoQ_8decy_hirNtB4_12HirParameter4name
FNF:12
FNH:12
DA:54,1673
DA:56,1673
DA:57,257
DA:58,1405
DA:59,3
DA:60,3
DA:61,2
DA:62,3
DA:64,1673
DA:85,3492
DA:86,3492
DA:87,3492
DA:90,268
DA:91,268
DA:92,268
DA:95,273
DA:96,273
DA:97,273
DA:100,1149
DA:101,1149
DA:102,1149
DA:103,1149
DA:104,1149
DA:105,1149
DA:137,2320
DA:138,2320
DA:139,2320
DA:140,2320
DA:141,2320
DA:142,2320
DA:143,2320
DA:144,2320
DA:147,1813
DA:148,1813
DA:149,1813
DA:152,2987
DA:153,2987
DA:154,2987
DA:157,1821
DA:158,1821
DA:159,1821
DA:178,514
DA:179,514
DA:180,514
DA:181,514
DA:182,514
DA:183,514
DA:184,514
DA:185,514
DA:186,514
DA:187,514
DA:188,514
DA:189,514
DA:215,4
DA:216,4
DA:217,4
DA:218,4
DA:219,4
DA:220,4
DA:221,4
DA:222,4
DA:223,4
DA:224,4
DA:225,4
DA:226,4
DA:227,4
DA:230,524
DA:231,524
DA:232,524
BRF:0
BRH:0
LF:69
LH:69
end_of_record
SF:/home/noahgift/src/decy/crates/decy-hir/src/property_tests.rs
FN:125,_RNCNCNvNtCshPtIA4XsLoQ_8decy_hir14property_testss_41property_ast_to_hir_preserves_param_counts_00B7_
FN:34,_RNCNvNtCshPtIA4XsLoQ_8decy_hir14property_tests21hir_function_strategy0B5_
FN:24,_RNCNvNtCshPtIA4XsLoQ_8decy_hir14property_tests22hir_parameter_strategy0B5_
FN:9,_RNvNtCshPtIA4XsLoQ_8decy_hir14property_tests17hir_type_strategy
FN:28,_RNvNtCshPtIA4XsLoQ_8decy_hir14property_tests21hir_function_strategy
FN:22,_RNvNtCshPtIA4XsLoQ_8decy_hir14property_tests22hir_parameter_strategy
FNDA:1142,_RNCNCNvNtCshPtIA4XsLoQ_8decy_hir14property_testss_41property_ast_to_hir_preserves_param_counts_00B7_
FNDA:768,_RNCNvNtCshPtIA4XsLoQ_8decy_hir14property_tests21hir_function_strategy0B5_
FNDA:3478,_RNCNvNtCshPtIA4XsLoQ_8decy_hir14property_tests22hir_parameter_strategy0B5_
FNDA:13,_RNvNtCshPtIA4XsLoQ_8decy_hir14property_tests17hir_type_strategy
FNDA:3,_RNvNtCshPtIA4XsLoQ_8decy_hir14property_tests21hir_function_strategy
FNDA:7,_RNvNtCshPtIA4XsLoQ_8decy_hir14property_tests22hir_parameter_strategy
FNF:6
FNH:6
DA:9,13
DA:10,13
DA:11,13
DA:12,13
DA:13,13
DA:14,13
DA:15,13
DA:17,13
DA:19,13
DA:22,7
DA:23,7
DA:24,3478
DA:25,7
DA:28,3
DA:29,3
DA:30,3
DA:31,3
DA:32,3
DA:33,3
DA:34,768
DA:35,3
DA:125,1142
BRF:0
BRH:0
LF:24
LH:24
end_of_record
SF:/home/noahgift/src/decy/crates/decy-hir/src/statement_tests.rs
FN:115,_RNvNtNtCshPtIA4XsLoQ_8decy_hir15statement_tests5testss_20test_hir_return_void
FN:148,_RNvNtNtCshPtIA4XsLoQ_8decy_hir15statement_tests5testss_20test_statement_debug
FN:490,_RNvNtNtCshPtIA4XsLoQ_8decy_hir15statement_tests5testss_21test_address_of_clone
FN:140,_RNvNtNtCshPtIA4XsLoQ_8decy_hir15statement_tests5testss_21test_expression_clone
FN:424,_RNvNtNtCshPtIA4XsLoQ_8decy_hir15statement_tests5testss_21test_while_with_break
FN:482,_RNvNtNtCshPtIA4XsLoQ_8decy_hir15statement_tests5testss_22test_dereference_clone
FN:352,_RNvNtNtCshPtIA4XsLoQ_8decy_hir15statement_tests5testss_23test_if_statement_clone
FN:369,_RNvNtNtCshPtIA4XsLoQ_8decy_hir15statement_tests5testss_23test_if_statement_debug
FN:498,_RNvNtNtCshPtIA4XsLoQ_8decy_hir15statement_tests5testss_23test_nested_dereference
FN:567,_RNvNtNtCshPtIA4XsLoQ_8decy_hir15statement_tests5testss_24test_function_call_clone
FN:408,_RNvNtNtCshPtIA4XsLoQ_8decy_hir15statement_tests5testss_24test_hir_break_statement
FN:103,_RNvNtNtCshPtIA4XsLoQ_8decy_hir15statement_tests5testss_25test_hir_return_statement
FN:323,_RNvNtNtCshPtIA4XsLoQ_8decy_hir15statement_tests5testss_25test_nested_if_statements
FN:470,_RNvNtNtCshPtIA4XsLoQ_8decy_hir15statement_tests5testss_26test_address_of_expression
FN:515,_RNvNtNtCshPtIA4XsLoQ_8decy_hir15statement_tests5testss_26test_function_call_no_args
FN:293,_RNvNtNtCshPtIA4XsLoQ_8decy_hir15statement_tests5testss_26test_hir_if_else_statement
FN:579,_RNvNtNtCshPtIA4XsLoQ_8decy_hir15statement_tests5testss_26test_nested_function_calls
FN:444,_RNvNtNtCshPtIA4XsLoQ_8decy_hir15statement_tests5testss_26test_while_statement_clone
FN:458,_RNvNtNtCshPtIA4XsLoQ_8decy_hir15statement_tests5testss_27test_dereference_expression
FN:416,_RNvNtNtCshPtIA4XsLoQ_8decy_hir15statement_tests5testss_27test_hir_continue_statement
FN:82,_RNvNtNtCshPtIA4XsLoQ_8decy_hir15statement_tests5testss_27test_hir_function_with_body
FN:251,_RNvNtNtCshPtIA4XsLoQ_8decy_hir15statement_tests5testss_28test_binary_expression_clone
FN:531,_RNvNtNtCshPtIA4XsLoQ_8decy_hir15statement_tests5testss_28test_function_call_with_args
FN:384,_RNvNtNtCshPtIA4XsLoQ_8decy_hir15statement_tests5testss_28test_hir_while_loop_creation
FN:209,_RNvNtNtCshPtIA4XsLoQ_8decy_hir15statement_tests5testss_29test_binary_operator_variants
FN:266,_RNvNtNtCshPtIA4XsLoQ_8decy_hir15statement_tests5testss_30test_hir_if_statement_creation
FN:229,_RNvNtNtCshPtIA4XsLoQ_8decy_hir15statement_tests5testss_30test_nested_binary_expressions
FN:175,_RNvNtNtCshPtIA4XsLoQ_8decy_hir15statement_tests5testss_31test_binary_expression_addition
FN:58,_RNvNtNtCshPtIA4XsLoQ_8decy_hir15statement_tests5testss_31test_hir_expression_int_literal
FN:127,_RNvNtNtCshPtIA4XsLoQ_8decy_hir15statement_tests5testss_31test_variable_declaration_clone
FN:156,_RNvNtNtCshPtIA4XsLoQ_8decy_hir15statement_tests5testss_31test_variable_with_pointer_type
FN:548,_RNvNtNtCshPtIA4XsLoQ_8decy_hir15statement_tests5testss_32test_function_call_multiple_args
FN:193,_RNvNtNtCshPtIA4XsLoQ_8decy_hir15statement_tests5testss_33test_binary_expression_comparison
FN:70,_RNvNtNtCshPtIA4XsLoQ_8decy_hir15statement_tests5testss_38test_hir_expression_variable_reference
FN:12,_RNvNtNtCshPtIA4XsLoQ_8decy_hir15statement_tests5testss_38test_hir_variable_declaration_creation
FN:35,_RNvNtNtCshPtIA4XsLoQ_8decy_hir15statement_tests5testss_49test_hir_variable_declaration_without_initializer
FNDA:1,_RNvNtNtCshPtIA4XsLoQ_8decy_hir15statement_tests5testss_20test_hir_return_void
FNDA:1,_RNvNtNtCshPtIA4XsLoQ_8decy_hir15statement_tests5testss_20test_statement_debug
FNDA:1,_RNvNtNtCshPtIA4XsLoQ_8decy_hir15statement_tests5testss_21test_address_of_clone
FNDA:1,_RNvNtNtCshPtIA4XsLoQ_8decy_hir15statement_tests5testss_21test_expression_clone
FNDA:1,_RNvNtNtCshPtIA4XsLoQ_8decy_hir15statement_tests5testss_21test_while_with_break
FNDA:1,_RNvNtNtCshPtIA4XsLoQ_8decy_hir15statement_tests5testss_22test_dereference_clone
FNDA:1,_RNvNtNtCshPtIA4XsLoQ_8decy_hir15statement_tests5testss_23test_if_statement_clone
FNDA:1,_RNvNtNtCshPtIA4XsLoQ_8decy_hir15statement_tests5testss_23test_if_statement_debug
FNDA:1,_RNvNtNtCshPtIA4XsLoQ_8decy_hir15statement_tests5testss_23test_nested_dereference
FNDA:1,_RNvNtNtCshPtIA4XsLoQ_8decy_hir15statement_tests5testss_24test_function_call_clone
FNDA:1,_RNvNtNtCshPtIA4XsLoQ_8decy_hir15statement_tests5testss_24test_hir_break_statement
FNDA:1,_RNvNtNtCshPtIA4XsLoQ_8decy_hir15statement_tests5testss_25test_hir_return_statement
FNDA:1,_RNvNtNtCshPtIA4XsLoQ_8decy_hir15statement_tests5testss_25test_nested_if_statements
FNDA:1,_RNvNtNtCshPtIA4XsLoQ_8decy_hir15statement_tests5testss_26test_address_of_expression
FNDA:1,_RNvNtNtCshPtIA4XsLoQ_8decy_hir15statement_tests5testss_26test_function_call_no_args
FNDA:1,_RNvNtNtCshPtIA4XsLoQ_8decy_hir15statement_tests5testss_26test_hir_if_else_statement
FNDA:1,_RNvNtNtCshPtIA4XsLoQ_8decy_hir15statement_tests5testss_26test_nested_function_calls
FNDA:1,_RNvNtNtCshPtIA4XsLoQ_8decy_hir15statement_tests5testss_26test_while_statement_clone
FNDA:1,_RNvNtNtCshPtIA4XsLoQ_8decy_hir15statement_tests5testss_27test_dereference_expression
FNDA:1,_RNvNtNtCshPtIA4XsLoQ_8decy_hir15statement_tests5testss_27test_hir_continue_statement
FNDA:1,_RNvNtNtCshPtIA4XsLoQ_8decy_hir15statement_tests5testss_27test_hir_function_with_body
FNDA:1,_RNvNtNtCshPtIA4XsLoQ_8decy_hir15statement_tests5testss_28test_binary_expression_clone
FNDA:1,_RNvNtNtCshPtIA4XsLoQ_8decy_hir15statement_tests5testss_28test_function_call_with_args
FNDA:1,_RNvNtNtCshPtIA4XsLoQ_8decy_hir15statement_tests5testss_28test_hir_while_loop_creation
FNDA:1,_RNvNtNtCshPtIA4XsLoQ_8decy_hir15statement_tests5testss_29test_binary_operator_variants
FNDA:1,_RNvNtNtCshPtIA4XsLoQ_8decy_hir15statement_tests5testss_30test_hir_if_statement_creation
FNDA:1,_RNvNtNtCshPtIA4XsLoQ_8decy_hir15statement_tests5testss_30test_nested_binary_expressions
FNDA:1,_RNvNtNtCshPtIA4XsLoQ_8decy_hir15statement_tests5testss_31test_binary_expression_addition
FNDA:1,_RNvNtNtCshPtIA4XsLoQ_8decy_hir15statement_tests5testss_31test_hir_expression_int_literal
FNDA:1,_RNvNtNtCshPtIA4XsLoQ_8decy_hir15statement_tests5testss_31test_variable_declaration_clone
FNDA:1,_RNvNtNtCshPtIA4XsLoQ_8decy_hir15statement_tests5testss_31test_variable_with_pointer_type
FNDA:1,_RNvNtNtCshPtIA4XsLoQ_8decy_hir15statement_tests5testss_32test_function_call_multiple_args
FNDA:1,_RNvNtNtCshPtIA4XsLoQ_8decy_hir15statement_tests5testss_33test_binary_expression_comparison
FNDA:1,_RNvNtNtCshPtIA4XsLoQ_8decy_hir15statement_tests5testss_38test_hir_expression_variable_reference
FNDA:1,_RNvNtNtCshPtIA4XsLoQ_8decy_hir15statement_tests5testss_38test_hir_variable_declaration_creation
FNDA:1,_RNvNtNtCshPtIA4XsLoQ_8decy_hir15statement_tests5testss_49test_hir_variable_declaration_without_initializer
FNF:36
FNH:36
DA:12,1
DA:14,1
DA:15,1
DA:16,1
DA:17,1
DA:18,1
DA:21,1
DA:22,1
DA:23,1
DA:24,1
DA:26,1
DA:27,1
DA:28,1
DA:30,0
DA:32,1
DA:35,1
DA:37,1
DA:38,1
DA:39,1
DA:40,1
DA:41,1
DA:44,1
DA:45,1
DA:46,1
DA:47,1
DA:49,1
DA:50,1
DA:51,1
DA:53,0
DA:55,1
DA:58,1
DA:60,1
DA:62,1
DA:63,1
DA:65,0
DA:67,1
DA:70,1
DA:72,1
DA:74,1
DA:75,1
DA:77,0
DA:79,1
DA:82,1
DA:84,1
DA:85,1
DA:86,1
DA:87,1
DA:88,1
DA:89,1
DA:90,1
DA:91,1
DA:92,1
DA:93,1
DA:94,1
DA:98,1
DA:99,1
DA:100,1
DA:103,1
DA:105,1
DA:107,1
DA:108,1
DA:110,0
DA:112,1
DA:115,1
DA:117,1
DA:119,1
DA:120,1
DA:122,0
DA:124,1
DA:127,1
DA:129,1
DA:130,1
DA:131,1
DA:132,1
DA:133,1
DA:135,1
DA:136,1
DA:137,1
DA:140,1
DA:142,1
DA:143,1
DA:144,1
DA:145,1
DA:148,1
DA:150,1
DA:151,1
DA:152,1
DA:153,1
DA:156,1
DA:158,1
DA:159,1
DA:160,1
DA:161,1
DA:162,1
DA:164,1
DA:165,1
DA:166,1
DA:168,0
DA:170,1
DA:175,1
DA:177,1
DA:178,1
DA:179,1
DA:180,1
DA:181,1
DA:183,1
DA:184,1
DA:185,1
DA:186,1
DA:188,0
DA:190,1
DA:193,1
DA:195,1
DA:196,1
DA:197,1
DA:198,1
DA:199,1
DA:201,1
DA:202,1
DA:204,0
DA:206,1
DA:209,1
DA:211,1
DA:212,1
DA:213,1
DA:214,1
DA:215,1
DA:216,1
DA:217,1
DA:218,1
DA:219,1
DA:220,1
DA:221,1
DA:222,1
DA:223,1
DA:225,1
DA:226,1
DA:229,1
DA:232,1
DA:233,1
DA:234,1
DA:235,1
DA:236,1
DA:237,1
DA:238,1
DA:239,1
DA:240,1
DA:242,1
DA:243,1
DA:244,1
DA:246,0
DA:248,1
DA:251,1
DA:253,1
DA:254,1
DA:255,1
DA:256,1
DA:257,1
DA:259,1
DA:260,1
DA:261,1
DA:266,1
DA:268,1
DA:269,1
DA:270,1
DA:271,1
DA:272,1
DA:273,1
DA:274,1
DA:275,1
DA:276,1
DA:279,1
DA:280,1
DA:281,1
DA:282,1
DA:284,1
DA:285,1
DA:286,1
DA:288,0
DA:290,1
DA:293,1
DA:295,1
DA:296,1
DA:297,1
DA:298,1
DA:299,1
DA:300,1
DA:301,1
DA:302,1
DA:303,1
DA:304,1
DA:305,1
DA:308,1
DA:309,1
DA:310,1
DA:311,1
DA:313,1
DA:314,1
DA:315,1
DA:316,1
DA:318,0
DA:320,1
DA:323,1
DA:325,1
DA:326,1
DA:327,1
DA:328,1
DA:329,1
DA:330,1
DA:331,1
DA:332,1
DA:333,1
DA:334,1
DA:335,1
DA:336,1
DA:337,1
DA:338,1
DA:339,1
DA:340,1
DA:341,1
DA:343,1
DA:344,1
DA:345,1
DA:347,0
DA:349,1
DA:352,1
DA:354,1
DA:355,1
DA:356,1
DA:357,1
DA:358,1
DA:359,1
DA:360,1
DA:361,1
DA:362,1
DA:364,1
DA:365,1
DA:366,1
DA:369,1
DA:371,1
DA:372,1
DA:373,1
DA:374,1
DA:375,1
DA:377,1
DA:378,1
DA:379,1
DA:384,1
DA:386,1
DA:387,1
DA:388,1
DA:389,1
DA:390,1
DA:391,1
DA:392,1
DA:393,1
DA:394,1
DA:395,1
DA:396,1
DA:397,1
DA:399,1
DA:400,1
DA:401,1
DA:403,0
DA:405,1
DA:408,1
DA:410,1
DA:412,1
DA:413,1
DA:416,1
DA:418,1
DA:420,1
DA:421,1
DA:424,1
DA:426,1
DA:427,1
DA:428,1
DA:429,1
DA:430,1
DA:431,1
DA:432,1
DA:433,1
DA:435,1
DA:436,1
DA:437,1
DA:439,0
DA:441,1
DA:444,1
DA:446,1
DA:447,1
DA:448,1
DA:449,1
DA:451,1
DA:452,1
DA:453,1
DA:458,1
DA:460,1
DA:462,1
DA:463,1
DA:465,0
DA:467,1
DA:470,1
DA:472,1
DA:474,1
DA:475,1
DA:477,0
DA:479,1
DA:482,1
DA:484,1
DA:485,1
DA:486,1
DA:487,1
DA:490,1
DA:492,1
DA:493,1
DA:494,1
DA:495,1
DA:498,1
DA:501,1
DA:502,1
DA:503,1
DA:505,1
DA:506,1
DA:508,0
DA:510,1
DA:515,1
DA:517,1
DA:518,1
DA:519,1
DA:520,1
DA:522,1
DA:523,1
DA:524,1
DA:526,0
DA:528,1
DA:531,1
DA:533,1
DA:534,1
DA:535,1
DA:536,1
DA:538,1
DA:539,1
DA:540,1
DA:541,1
DA:543,0
DA:545,1
DA:548,1
DA:550,1
DA:551,1
DA:552,1
DA:553,1
DA:554,1
DA:555,1
DA:556,1
DA:558,1
DA:559,1
DA:560,1
DA:562,0
DA:564,1
DA:567,1
DA:569,1
DA:570,1
DA:571,1
DA:572,1
DA:574,1
DA:575,1
DA:576,1
DA:579,1
DA:582,1
DA:583,1
DA:584,1
DA:585,1
DA:586,1
DA:587,1
DA:588,1
DA:590,1
DA:591,1
DA:592,1
DA:593,1
DA:595,0
DA:597,1
BRF:0
BRH:0
LF:381
LH:359
end_of_record
SF:/home/noahgift/src/decy/crates/decy-parser/src/parser.rs
FN:149,_RNvMNtCsFVWQzeLxIP_11decy_parser6parserNtB2_7CParser10parse_file
FN:40,_RNvMNtCsFVWQzeLxIP_11decy_parser6parserNtB2_7CParser3new
FN:69,_RNvMNtCsFVWQzeLxIP_11decy_parser6parserNtB2_7CParser5parse
FN:272,_RNvMs0_NtCsFVWQzeLxIP_11decy_parser6parserNtB5_3Ast12add_function
FN:260,_RNvMs0_NtCsFVWQzeLxIP_11decy_parser6parserNtB5_3Ast3new
FN:267,_RNvMs0_NtCsFVWQzeLxIP_11decy_parser6parserNtB5_3Ast9functions
FN:296,_RNvMs2_NtCsFVWQzeLxIP_11decy_parser6parserNtB5_8Function3new
FN:333,_RNvMs3_NtCsFVWQzeLxIP_11decy_parser6parserNtB5_9Parameter3new
FN:235,_RNvNtCsFVWQzeLxIP_11decy_parser6parser12convert_type
FN:169,_RNvNtCsFVWQzeLxIP_11decy_parser6parser14visit_function
FN:191,_RNvNtCsFVWQzeLxIP_11decy_parser6parser16extract_function
FN:278,_RNvXs1_NtCsFVWQzeLxIP_11decy_parser6parserNtB5_3AstNtNtCs5GmCzIpY9Qj_4core7default7Default7default
FN:246,_RNCNvNtCsFVWQzeLxIP_11decy_parser6parser12convert_type0B5_
FN:156,_RNvXs_NtCsFVWQzeLxIP_11decy_parser6parserNtB4_7CParserNtNtNtCs5GmCzIpY9Qj_4core3ops4drop4Drop4drop
FN:246,_RNCNvNtCs93dH7t83t3Z_11decy_parser6parser12convert_type0B5_
FN:156,_RNvXs_NtCs93dH7t83t3Z_11decy_parser6parserNtB4_7CParserNtNtNtCs5GmCzIpY9Qj_4core3ops4drop4Drop4drop
FN:149,_RNvMNtCs93dH7t83t3Z_11decy_parser6parserNtB2_7CParser10parse_file
FN:278,_RNvXs1_NtCs93dH7t83t3Z_11decy_parser6parserNtB5_3AstNtNtCs5GmCzIpY9Qj_4core7default7Default7default
FN:40,_RNvMNtCs93dH7t83t3Z_11decy_parser6parserNtB2_7CParser3new
FN:69,_RNvMNtCs93dH7t83t3Z_11decy_parser6parserNtB2_7CParser5parse
FN:272,_RNvMs0_NtCs93dH7t83t3Z_11decy_parser6parserNtB5_3Ast12add_function
FN:260,_RNvMs0_NtCs93dH7t83t3Z_11decy_parser6parserNtB5_3Ast3new
FN:267,_RNvMs0_NtCs93dH7t83t3Z_11decy_parser6parserNtB5_3Ast9functions
FN:296,_RNvMs2_NtCs93dH7t83t3Z_11decy_parser6parserNtB5_8Function3new
FN:333,_RNvMs3_NtCs93dH7t83t3Z_11decy_parser6parserNtB5_9Parameter3new
FN:235,_RNvNtCs93dH7t83t3Z_11decy_parser6parser12convert_type
FN:169,_RNvNtCs93dH7t83t3Z_11decy_parser6parser14visit_function
FN:191,_RNvNtCs93dH7t83t3Z_11decy_parser6parser16extract_function
FNDA:0,_RNvMNtCsFVWQzeLxIP_11decy_parser6parserNtB2_7CParser10parse_file
FNDA:0,_RNvMNtCsFVWQzeLxIP_11decy_parser6parserNtB2_7CParser3new
FNDA:0,_RNvMNtCsFVWQzeLxIP_11decy_parser6parserNtB2_7CParser5parse
FNDA:0,_RNvMs0_NtCsFVWQzeLxIP_11decy_parser6parserNtB5_3Ast12add_function
FNDA:0,_RNvMs0_NtCsFVWQzeLxIP_11decy_parser6parserNtB5_3Ast3new
FNDA:0,_RNvMs0_NtCsFVWQzeLxIP_11decy_parser6parserNtB5_3Ast9functions
FNDA:514,_RNvMs2_NtCsFVWQzeLxIP_11decy_parser6parserNtB5_8Function3new
FNDA:1149,_RNvMs3_NtCsFVWQzeLxIP_11decy_parser6parserNtB5_9Parameter3new
FNDA:0,_RNvNtCsFVWQzeLxIP_11decy_parser6parser12convert_type
FNDA:0,_RNvNtCsFVWQzeLxIP_11decy_parser6parser14visit_function
FNDA:0,_RNvNtCsFVWQzeLxIP_11decy_parser6parser16extract_function
FNDA:0,_RNvXs1_NtCsFVWQzeLxIP_11decy_parser6parserNtB5_3AstNtNtCs5GmCzIpY9Qj_4core7default7Default7default
FNDA:0,_RNCNvNtCsFVWQzeLxIP_11decy_parser6parser12convert_type0B5_
FNDA:0,_RNvXs_NtCsFVWQzeLxIP_11decy_parser6parserNtB4_7CParserNtNtNtCs5GmCzIpY9Qj_4core3ops4drop4Drop4drop
FNDA:1,_RNCNvNtCs93dH7t83t3Z_11decy_parser6parser12convert_type0B5_
FNDA:9,_RNvXs_NtCs93dH7t83t3Z_11decy_parser6parserNtB4_7CParserNtNtNtCs5GmCzIpY9Qj_4core3ops4drop4Drop4drop
FNDA:0,_RNvMNtCs93dH7t83t3Z_11decy_parser6parserNtB2_7CParser10parse_file
FNDA:0,_RNvXs1_NtCs93dH7t83t3Z_11decy_parser6parserNtB5_3AstNtNtCs5GmCzIpY9Qj_4core7default7Default7default
FNDA:9,_RNvMNtCs93dH7t83t3Z_11decy_parser6parserNtB2_7CParser3new
FNDA:8,_RNvMNtCs93dH7t83t3Z_11decy_parser6parserNtB2_7CParser5parse
FNDA:7,_RNvMs0_NtCs93dH7t83t3Z_11decy_parser6parserNtB5_3Ast12add_function
FNDA:8,_RNvMs0_NtCs93dH7t83t3Z_11decy_parser6parserNtB5_3Ast3new
FNDA:10,_RNvMs0_NtCs93dH7t83t3Z_11decy_parser6parserNtB5_3Ast9functions
FNDA:7,_RNvMs2_NtCs93dH7t83t3Z_11decy_parser6parserNtB5_8Function3new
FNDA:8,_RNvMs3_NtCs93dH7t83t3Z_11decy_parser6parserNtB5_9Parameter3new
FNDA:16,_RNvNtCs93dH7t83t3Z_11decy_parser6parser12convert_type
FNDA:7,_RNvNtCs93dH7t83t3Z_11decy_parser6parser14visit_function
FNDA:7,_RNvNtCs93dH7t83t3Z_11decy_parser6parser16extract_function
FNF:14
FNH:12
DA:40,9
DA:42,9
DA:43,9
DA:44,0
DA:45,9
DA:46,9
DA:47,9
DA:69,8
DA:70,8
DA:71,8
DA:73,8
DA:76,8
DA:77,1
DA:78,7
DA:81,7
DA:82,7
DA:83,7
DA:84,7
DA:85,7
DA:88,7
DA:89,7
DA:90,7
DA:91,7
DA:92,7
DA:93,7
DA:95,7
DA:98,7
DA:102,7
DA:103,0
DA:104,7
DA:107,7
DA:108,7
DA:109,1
DA:110,1
DA:113,1
DA:114,1
DA:115,1
DA:116,1
DA:117,0
DA:119,0
DA:123,6
DA:126,6
DA:129,6
DA:130,6
DA:131,6
DA:132,6
DA:133,6
DA:134,6
DA:136,6
DA:137,8
DA:149,0
DA:151,0
DA:152,0
DA:156,9
DA:158,9
DA:159,9
DA:160,9
DA:161,9
DA:169,7
DA:170,7
DA:171,7
DA:172,7
DA:173,7
DA:175,7
DA:178,7
DA:180,7
DA:182,7
DA:183,7
DA:184,7
DA:185,0
DA:187,7
DA:188,7
DA:191,7
DA:193,7
DA:194,7
DA:195,7
DA:196,7
DA:197,7
DA:198,7
DA:202,7
DA:203,7
DA:204,7
DA:207,7
DA:208,7
DA:210,8
DA:212,8
DA:215,8
DA:216,8
DA:217,8
DA:218,8
DA:219,8
DA:220,8
DA:224,8
DA:225,8
DA:226,8
DA:227,8
DA:230,7
DA:231,7
DA:235,16
DA:237,16
DA:238,2
DA:239,12
DA:240,1
DA:241,0
DA:242,0
DA:245,1
DA:246,1
DA:248,0
DA:250,16
DA:260,8
DA:261,8
DA:262,8
DA:263,8
DA:264,8
DA:267,10
DA:268,10
DA:269,10
DA:272,7
DA:273,7
DA:274,7
DA:278,0
DA:279,0
DA:280,0
DA:296,521
DA:297,521
DA:298,521
DA:299,521
DA:300,521
DA:301,521
DA:302,521
DA:333,1157
DA:334,1157
DA:335,1157
BRF:0
BRH:0
LF:134
LH:120
end_of_record
SF:/home/noahgift/src/decy/crates/decy-parser/src/parser_tests.rs
FN:12,_RNvNtNtNtCs93dH7t83t3Z_11decy_parser6parser12parser_tests5testss_20test_parser_creation
FN:95,_RNvNtNtNtCs93dH7t83t3Z_11decy_parser6parser12parser_tests5testss_22test_parse_empty_input
FN:133,_RNvNtNtNtCs93dH7t83t3Z_11decy_parser6parser12parser_tests5testss_24test_parse_void_function
FN:149,_RNvNtNtNtCs93dH7t83t3Z_11decy_parser6parser12parser_tests5testss_28test_parse_pointer_parameter
FN:115,_RNvNtNtNtCs93dH7t83t3Z_11decy_parser6parser12parser_tests5testss_29test_parse_multiple_functions
FN:19,_RNvNtNtNtCs93dH7t83t3Z_11decy_parser6parser12parser_tests5testss_31test_parse_simple_main_function
FN:82,_RNvNtNtNtCs93dH7t83t3Z_11decy_parser6parser12parser_tests5testss_32test_parse_syntax_error_handling
FN:43,_RNvNtNtNtCs93dH7t83t3Z_11decy_parser6parser12parser_tests5testss_35test_parse_function_with_parameters
FN:65,_RNvNtNtNtCs93dH7t83t3Z_11decy_parser6parser12parser_tests5testss_37test_parse_function_with_return_value
FNDA:1,_RNvNtNtNtCs93dH7t83t3Z_11decy_parser6parser12parser_tests5testss_20test_parser_creation
FNDA:1,_RNvNtNtNtCs93dH7t83t3Z_11decy_parser6parser12parser_tests5testss_22test_parse_empty_input
FNDA:1,_RNvNtNtNtCs93dH7t83t3Z_11decy_parser6parser12parser_tests5testss_24test_parse_void_function
FNDA:1,_RNvNtNtNtCs93dH7t83t3Z_11decy_parser6parser12parser_tests5testss_28test_parse_pointer_parameter
FNDA:1,_RNvNtNtNtCs93dH7t83t3Z_11decy_parser6parser12parser_tests5testss_29test_parse_multiple_functions
FNDA:1,_RNvNtNtNtCs93dH7t83t3Z_11decy_parser6parser12parser_tests5testss_31test_parse_simple_main_function
FNDA:1,_RNvNtNtNtCs93dH7t83t3Z_11decy_parser6parser12parser_tests5testss_32test_parse_syntax_error_handling
FNDA:1,_RNvNtNtNtCs93dH7t83t3Z_11decy_parser6parser12parser_tests5testss_35test_parse_function_with_parameters
FNDA:1,_RNvNtNtNtCs93dH7t83t3Z_11decy_parser6parser12parser_tests5testss_37test_parse_function_with_return_value
FNF:9
FNH:9
DA:12,1
DA:14,1
DA:15,1
DA:16,1
DA:19,1
DA:21,1
DA:22,1
DA:24,1
DA:25,1
DA:26,1
DA:29,1
DA:30,1
DA:32,0
DA:36,1
DA:37,1
DA:38,1
DA:39,1
DA:40,1
DA:43,1
DA:45,1
DA:46,1
DA:48,1
DA:49,1
DA:50,1
DA:52,1
DA:53,1
DA:54,1
DA:55,1
DA:57,1
DA:58,1
DA:60,1
DA:61,1
DA:62,1
DA:65,1
DA:67,1
DA:68,1
DA:70,1
DA:71,1
DA:72,1
DA:74,1
DA:75,1
DA:76,1
DA:77,1
DA:78,1
DA:79,1
DA:82,1
DA:84,1
DA:85,1
DA:87,1
DA:88,1
DA:89,1
DA:90,0
DA:92,1
DA:95,1
DA:97,1
DA:98,1
DA:100,1
DA:103,1
DA:105,1
DA:106,1
DA:107,1
DA:109,0
DA:111,0
DA:112,1
DA:115,1
DA:117,1
DA:118,1
DA:119,1
DA:120,1
DA:121,1
DA:123,1
DA:124,1
DA:125,1
DA:127,1
DA:128,1
DA:129,1
DA:130,1
DA:133,1
DA:135,1
DA:136,1
DA:138,1
DA:139,1
DA:140,1
DA:142,1
DA:143,1
DA:144,1
DA:145,1
DA:146,1
DA:149,1
DA:151,1
DA:152,1
DA:154,1
DA:155,1
DA:156,1
DA:158,1
DA:159,1
DA:160,1
DA:161,1
DA:164,1
DA:165,1
DA:166,1
DA:168,0
DA:170,1
BRF:0
BRH:0
LF:103
LH:98
end_of_record
SF:/home/noahgift/src/decy/crates/decy/src/main.rs
FN:8,_RNvCs2saiOqCBtlg_4decy4main
FNDA:0,_RNvCs2saiOqCBtlg_4decy4main
FNF:1
FNH:0
DA:8,0
DA:9,0
DA:10,0
DA:11,0
DA:12,0
DA:13,0
DA:14,0
BRF:0
BRH:0
LF:7
LH:0
end_of_record